Certificate:
    Data:
        Version: 3 (0x2)
        Serial Number: 2 (0x2)
    Signature Algorithm: sha256WithRSAEncryption
        Issuer: C=FR, ST=Radius, L=Somewhere, O=Example Inc./emailAddress=admin@example.com, CN=Example Certificate Authority
        Validity
            Not Before: Mar  5 21:01:07 2016 GMT
            Not After : May  4 21:01:07 2016 GMT
        Subject: C=FR, ST=Radius, O=Example Inc., CN=user@example.com/emailAddress=user@example.com
        Subject Public Key Info:
            Public Key Algorithm: rsaEncryption
                Public-Key: (2048 bit)
                Modulus:
                    00:ab:c6:71:95:d0:99:e8:7f:6a:d5:b2:a6:78:44:
                    ad:97:62:e8:ad:3f:1d:cb:74:99:e8:c8:0f:41:e6:
                    0d:29:75:1c:86:93:f1:9a:ad:78:75:00:7f:07:ab:
                    9a:7e:1d:9e:93:78:2e:b2:2b:bb:67:f7:5f:f4:84:
                    db:01:e0:d2:83:e2:fc:84:d3:f1:3c:94:b4:64:3c:
                    4c:1c:02:fe:ed:21:b1:e9:68:d7:14:7d:c8:e3:92:
                    4a:a8:c6:20:4f:89:20:a1:a2:40:30:3a:ae:ca:0f:
                    77:33:6c:8f:85:3f:46:ef:b0:b7:88:15:94:9d:2d:
                    fc:18:02:e5:74:ce:f6:23:06:d2:c4:be:cf:46:b8:
                    78:38:6c:e6:33:2d:06:d3:23:6e:08:f1:4e:02:f1:
                    13:a6:9e:46:73:ca:52:52:2c:9d:e7:fd:d3:c5:12:
                    35:1d:17:5d:06:8d:d3:e7:ab:92:24:5e:af:a4:dc:
                    80:eb:e3:fb:af:81:03:0b:db:69:d6:4f:f6:8e:c3:
                    61:2e:14:36:6f:85:11:94:fe:39:49:f6:02:41:a0:
                    e9:15:9f:5f:a9:ec:3f:3a:3c:b4:3c:56:0c:0d:c3:
                    09:83:ba:91:b7:f9:09:74:54:14:82:8f:89:f0:12:
                    d2:e9:4e:1f:8f:4a:e5:37:60:62:40:25:7f:93:a7:
                    c5:fd
                Exponent: 65537 (0x10001)
        X509v3 extensions:
            X509v3 Extended Key Usage: 
                TLS Web Client Authentication
            X509v3 CRL Distribution Points: 

                Full Name:
                  URI:http://www.example.com/example_ca.crl

    Signature Algorithm: sha256WithRSAEncryption
         42:d7:b6:56:bc:85:dc:2f:ce:03:7c:c9:af:70:53:d9:cc:ed:
         ea:dc:f1:a4:6f:c2:0c:e6:1f:0a:36:1a:dc:e6:49:c3:45:bb:
         6a:73:8e:4c:21:10:79:b1:28:da:10:a0:b9:9a:21:e0:8a:8e:
         87:34:8b:00:a5:ed:c6:b3:0c:85:96:a6:6b:19:c7:3d:c1:e1:
         33:67:4d:4d:e9:e5:4d:3e:1e:1c:07:e0:8a:4c:c6:40:c7:52:
         0a:f0:ef:d8:56:83:17:e0:67:50:19:60:09:fd:93:6c:1e:ea:
         c0:0c:67:df:7e:2d:c1:f4:64:52:12:b3:73:be:be:45:b0:f3:
         23:81:96:6e:ae:e7:b5:82:9b:8f:55:2e:27:0c:d1:ea:39:bc:
         db:2c:d3:2b:5d:6f:2d:3b:77:55:03:07:29:bc:a5:4f:09:00:
         dc:15:50:e8:df:02:28:a6:50:bc:1b:41:78:67:4b:da:9c:42:
         6c:30:57:e3:88:25:8e:49:bc:f9:32:36:f6:d0:48:f8:54:2e:
         3c:cd:87:d6:d0:27:e0:64:15:41:94:d3:41:06:30:75:71:80:
         11:68:3b:88:0f:06:59:08:ae:69:77:6d:f8:1a:b7:c6:1a:4b:
         d7:93:ad:87:28:bf:d2:b7:66:69:aa:83:e0:20:6b:ac:83:23:
         9f:4c:bd:59
-----BEGIN CERTIFICATE-----
MIIDzzCCAregAwIBAgIBAjANBgkqhkiG9w0BAQsFADCBkzELMAkGA1UEBhMCRlIx
DzANBgNVBAgTBlJhZGl1czESMBAGA1UEBxMJU29tZXdoZXJlMRUwEwYDVQQKEwxF
eGFtcGxlIEluYy4xIDAeBgkqhkiG9w0BCQEWEWFkbWluQGV4YW1wbGUuY29tMSYw
JAYDVQQDEx1FeGFtcGxlIENlcnRpZmljYXRlIEF1dGhvcml0eTAeFw0xNjAzMDUy
MTAxMDdaFw0xNjA1MDQyMTAxMDdaMHExCzAJBgNVBAYTAkZSMQ8wDQYDVQQIEwZS
YWRpdXMxFTATBgNVBAoTDEV4YW1wbGUgSW5jLjEZMBcGA1UEAxQQdXNlckBleGFt
cGxlLmNvbTEfMB0GCSqGSIb3DQEJARYQdXNlckBleGFtcGxlLmNvbTCCASIwDQYJ
KoZIhvcNAQEBBQADggEPADCCAQoCggEBAKvGcZXQmeh/atWypnhErZdi6K0/Hct0
mejID0HmDSl1HIaT8ZqteHUAfwermn4dnpN4LrIru2f3X/SE2wHg0oPi/ITT8TyU
tGQ8TBwC/u0hselo1xR9yOOSSqjGIE+JIKGiQDA6rsoPdzNsj4U/Ru+wt4gVlJ0t
/BgC5XTO9iMG0sS+z0a4eDhs5jMtBtMjbgjxTgLxE6aeRnPKUlIsnef908USNR0X
XQaN0+erkiRer6TcgOvj+6+BAwvbadZP9o7DYS4UNm+FEZT+OUn2AkGg6RWfX6ns
Pzo8tDxWDA3DCYO6kbf5CXRUFIKPifAS0ulOH49K5TdgYkAlf5Onxf0CAwEAAaNP
ME0wEwYDVR0lBAwwCgYIKwYBBQUHAwIwNgYDVR0fBC8wLTAroCmgJ4YlaHR0cDov
L3d3dy5leGFtcGxlLmNvbS9leGFtcGxlX2NhLmNybDANBgkqhkiG9w0BAQsFAAOC
AQEAQte2VryF3C/OA3zJr3BT2czt6tzxpG/CDOYfCjYa3OZJw0W7anOOTCEQebEo
2hCguZoh4IqOhzSLAKXtxrMMhZamaxnHPcHhM2dNTenlTT4eHAfgikzGQMdSCvDv
2FaDF+BnUBlgCf2TbB7qwAxn334twfRkUhKzc76+RbDzI4GWbq7ntYKbj1UuJwzR
6jm82yzTK11vLTt3VQMHKbylTwkA3BVQ6N8CKKZQvBtBeGdL2pxCbDBX44gljkm8
+TI29tBI+FQuPM2H1tAn4GQVQZTTQQYwdXGAEWg7iA8GWQiuaXdt+Bq3xhpL15Ot
hyi/0rdmaaqD4CBrrIMjn0y9WQ==
-----END CERTIFICATE-----
