Certificate:
    Data:
        Version: 3 (0x2)
        Serial Number: 1 (0x1)
    Signature Algorithm: sha256WithRSAEncryption
        Issuer: C=FR, ST=Radius, L=Somewhere, O=Example Inc./emailAddress=admin@example.com, CN=Example Certificate Authority
        Validity
            Not Before: Mar  5 21:01:06 2016 GMT
            Not After : May  4 21:01:06 2016 GMT
        Subject: C=FR, ST=Radius, O=Example Inc., CN=Example Server Certificate/emailAddress=admin@example.com
        Subject Public Key Info:
            Public Key Algorithm: rsaEncryption
                Public-Key: (2048 bit)
                Modulus:
                    00:b0:b9:8a:cb:36:37:37:90:67:43:6f:2f:a6:b5:
                    1d:3f:d7:b1:ff:72:0b:03:1b:19:f1:84:32:18:cc:
                    b2:35:73:c5:8b:87:24:d0:92:82:0d:32:d6:d4:2a:
                    46:5a:bf:69:4d:cb:32:9c:71:44:f6:6c:e9:ee:31:
                    80:51:cb:aa:55:3a:88:f6:d7:4e:1c:98:1c:02:55:
                    84:fa:a3:c0:51:6b:04:cf:cb:2b:c2:01:f0:fd:a7:
                    85:b7:68:94:d0:00:25:2e:86:2e:85:42:9b:3d:b9:
                    3a:27:ed:cf:35:c6:e1:7b:3e:7e:61:ca:cb:7b:5d:
                    61:95:d8:39:05:e3:2b:f4:e1:27:f6:6d:30:18:10:
                    ce:e7:0c:76:26:38:59:76:27:66:f6:aa:42:c1:31:
                    06:90:24:5b:92:57:34:b3:81:c4:e7:60:db:a3:e4:
                    dd:68:c0:bd:e3:d5:fb:12:f9:fb:ab:5c:3e:06:93:
                    5b:84:29:71:ba:87:48:6d:8a:df:b9:82:03:40:00:
                    14:bc:ab:7f:84:51:8e:66:4d:46:6d:75:67:fb:86:
                    4e:b3:08:19:13:a6:33:97:63:87:8a:d6:06:b3:20:
                    35:73:9b:89:ec:73:0a:5d:9d:2e:12:e0:d7:53:fe:
                    38:c5:35:06:aa:35:69:01:26:83:22:ee:b8:4f:b8:
                    c2:f3
                Exponent: 65537 (0x10001)
        X509v3 extensions:
            X509v3 Extended Key Usage: 
                TLS Web Server Authentication
            X509v3 CRL Distribution Points: 

                Full Name:
                  URI:http://www.example.com/example_ca.crl

    Signature Algorithm: sha256WithRSAEncryption
         66:55:2f:c3:ad:91:70:25:ce:79:04:7a:e3:13:24:0f:08:cf:
         84:55:66:0e:3a:d7:ce:8f:3b:85:62:4f:15:39:ce:94:3c:53:
         67:da:7e:64:c8:8b:7d:c0:c0:27:84:25:aa:70:3d:c0:23:ed:
         0a:bf:ab:4f:f1:5c:f2:8b:57:c3:36:1b:a3:3a:ef:7c:86:aa:
         74:21:f3:07:eb:35:80:a8:a9:7e:f0:f6:59:eb:f4:ca:4f:02:
         86:36:d7:75:96:48:cf:49:01:3f:9a:8b:c5:37:21:6a:4f:eb:
         ee:61:2b:0a:06:6e:8b:85:a5:10:6b:d9:0f:00:2b:57:12:dd:
         84:26:cf:2d:e5:47:b7:a4:65:cc:8e:19:8f:64:15:42:7c:fa:
         a5:a9:23:46:33:3f:10:ad:ec:81:2f:80:ae:e6:35:75:53:ab:
         b9:5e:50:26:53:f1:22:b8:53:82:f6:94:ef:43:c4:49:a2:98:
         78:6c:54:98:79:4c:c6:09:3d:9a:0a:88:33:00:7f:d3:75:71:
         d6:0c:8a:45:37:4f:27:18:65:9b:38:0e:26:09:6d:f2:d8:30:
         21:b5:0e:aa:46:e9:1e:e4:53:9a:69:c0:47:4d:76:52:14:b8:
         96:42:81:3b:e8:98:87:6f:14:3f:4b:b0:c9:8e:5f:b7:20:cf:
         a5:9c:bf:86
-----BEGIN CERTIFICATE-----
MIID2jCCAsKgAwIBAgIBATANBgkqhkiG9w0BAQsFADCBkzELMAkGA1UEBhMCRlIx
DzANBgNVBAgTBlJhZGl1czESMBAGA1UEBxMJU29tZXdoZXJlMRUwEwYDVQQKEwxF
eGFtcGxlIEluYy4xIDAeBgkqhkiG9w0BCQEWEWFkbWluQGV4YW1wbGUuY29tMSYw
JAYDVQQDEx1FeGFtcGxlIENlcnRpZmljYXRlIEF1dGhvcml0eTAeFw0xNjAzMDUy
MTAxMDZaFw0xNjA1MDQyMTAxMDZaMHwxCzAJBgNVBAYTAkZSMQ8wDQYDVQQIEwZS
YWRpdXMxFTATBgNVBAoTDEV4YW1wbGUgSW5jLjEjMCEGA1UEAxMaRXhhbXBsZSBT
ZXJ2ZXIgQ2VydGlmaWNhdGUxIDAeBgkqhkiG9w0BCQEWEWFkbWluQGV4YW1wbGUu
Y29tMIIBIjANBgkqhkiG9w0BAQEFAAOCAQ8AMIIBCgKCAQEAsLmKyzY3N5BnQ28v
prUdP9ex/3ILAxsZ8YQyGMyyNXPFi4ck0JKCDTLW1CpGWr9pTcsynHFE9mzp7jGA
UcuqVTqI9tdOHJgcAlWE+qPAUWsEz8srwgHw/aeFt2iU0AAlLoYuhUKbPbk6J+3P
Ncbhez5+YcrLe11hldg5BeMr9OEn9m0wGBDO5wx2JjhZdidm9qpCwTEGkCRbklc0
s4HE52Dbo+TdaMC949X7Evn7q1w+BpNbhClxuodIbYrfuYIDQAAUvKt/hFGOZk1G
bXVn+4ZOswgZE6Yzl2OHitYGsyA1c5uJ7HMKXZ0uEuDXU/44xTUGqjVpASaDIu64
T7jC8wIDAQABo08wTTATBgNVHSUEDDAKBggrBgEFBQcDATA2BgNVHR8ELzAtMCug
KaAnhiVodHRwOi8vd3d3LmV4YW1wbGUuY29tL2V4YW1wbGVfY2EuY3JsMA0GCSqG
SIb3DQEBCwUAA4IBAQBmVS/DrZFwJc55BHrjEyQPCM+EVWYOOtfOjzuFYk8VOc6U
PFNn2n5kyIt9wMAnhCWqcD3AI+0Kv6tP8Vzyi1fDNhujOu98hqp0IfMH6zWAqKl+
8PZZ6/TKTwKGNtd1lkjPSQE/movFNyFqT+vuYSsKBm6LhaUQa9kPACtXEt2EJs8t
5Ue3pGXMjhmPZBVCfPqlqSNGMz8QreyBL4Cu5jV1U6u5XlAmU/EiuFOC9pTvQ8RJ
oph4bFSYeUzGCT2aCogzAH/TdXHWDIpFN08nGGWbOA4mCW3y2DAhtQ6qRuke5FOa
acBHTXZSFLiWQoE76JiHbxQ/S7DJjl+3IM+lnL+G
-----END CERTIFICATE-----
